; ModuleID = 'bench/abc/original/utilFile.ll'
source_filename = "bench/abc/original/utilFile.ll"
target datalayout = "e-m:e-p270:32:32-p271:32:32-p272:64:64-i64:64-i128:128-f80:128-n8:16:32:64-S128"
target triple = "x86_64-pc-linux-gnu"

%struct.__va_list_tag = type { i32, i32, ptr, ptr }

@.str = private unnamed_addr constant [9 x i8] c"%sXXXXXX\00", align 1
@vnsprintf.dummy_file = internal unnamed_addr global ptr null, align 8
@.str.1 = private unnamed_addr constant [10 x i8] c"/dev/null\00", align 1
@.str.2 = private unnamed_addr constant [3 x i8] c"wb\00", align 1

; Function Attrs: nounwind uwtable
define noundef i32 @tmpFile(ptr noundef %0, ptr noundef readonly captures(none) %1, ptr noundef captures(none) initializes((0, 8)) %2) local_unnamed_addr #0 {
  %4 = tail call i64 @strlen(ptr noundef nonnull dereferenceable(1) %0) #11
  %5 = tail call i64 @strlen(ptr noundef nonnull dereferenceable(1) %1) #11
  %6 = add i64 %4, 7
  %7 = add i64 %6, %5
  %8 = tail call noalias ptr @malloc(i64 noundef %7) #12
  store ptr %8, ptr %2, align 8, !tbaa !3
  %9 = tail call i32 (ptr, ptr, ...) @sprintf(ptr noundef nonnull dereferenceable(1) %8, ptr noundef nonnull dereferenceable(1) @.str, ptr noundef nonnull %0) #13
  %10 = load ptr, ptr %2, align 8, !tbaa !3
  %11 = tail call i32 @mkstemp(ptr noundef %10) #13
  %12 = icmp eq i32 %11, -1
  br i1 %12, label %.sink.split, label %13

13:                                               ; preds = %3
  %14 = tail call i32 @close(i32 noundef %11) #13
  %15 = load ptr, ptr %2, align 8, !tbaa !3
  %16 = tail call i32 @unlink(ptr noundef %15) #13
  %17 = load ptr, ptr %2, align 8, !tbaa !3
  %18 = tail call ptr @strcat(ptr noundef nonnull dereferenceable(1) %17, ptr noundef nonnull dereferenceable(1) %1) #13
  %19 = load ptr, ptr %2, align 8, !tbaa !3
  %20 = tail call i32 (ptr, i32, ...) @open(ptr noundef %19, i32 noundef 194, i32 noundef 384) #13
  %21 = icmp eq i32 %20, -1
  br i1 %21, label %.sink.split, label %23

.sink.split:                                      ; preds = %13, %3
  %22 = load ptr, ptr %2, align 8, !tbaa !3
  tail call void @free(ptr noundef %22) #13
  store ptr null, ptr %2, align 8, !tbaa !3
  br label %23

23:                                               ; preds = %.sink.split, %13
  %.0 = phi i32 [ %20, %13 ], [ -1, %.sink.split ]
  ret i32 %.0
}

; Function Attrs: mustprogress nocallback nofree nosync nounwind willreturn memory(argmem: readwrite)
declare void @llvm.lifetime.start.p0(i64 immarg, ptr captures(none)) #1

; Function Attrs: mustprogress nofree nounwind willreturn allockind("alloc,uninitialized") allocsize(0) memory(inaccessiblemem: readwrite)
declare noalias noundef ptr @malloc(i64 noundef) local_unnamed_addr #2

; Function Attrs: mustprogress nofree nounwind willreturn memory(argmem: read)
declare i64 @strlen(ptr noundef captures(none)) local_unnamed_addr #3

; Function Attrs: nofree nounwind
declare noundef i32 @sprintf(ptr noalias noundef writeonly captures(none), ptr noundef readonly captures(none), ...) local_unnamed_addr #4

declare i32 @mkstemp(ptr noundef) local_unnamed_addr #5

; Function Attrs: mustprogress nounwind willreturn allockind("free") memory(argmem: readwrite, inaccessiblemem: readwrite)
declare void @free(ptr allocptr noundef captures(none)) local_unnamed_addr #6

declare i32 @close(i32 noundef) local_unnamed_addr #5

; Function Attrs: nofree nounwind
declare noundef i32 @unlink(ptr noundef readonly captures(none)) local_unnamed_addr #4

; Function Attrs: mustprogress nofree nounwind willreturn memory(argmem: readwrite)
declare ptr @strcat(ptr noalias noundef returned, ptr noalias noundef readonly captures(none)) local_unnamed_addr #7

; Function Attrs: nofree
declare noundef i32 @open(ptr noundef readonly captures(none), i32 noundef, ...) local_unnamed_addr #8

; Function Attrs: mustprogress nocallback nofree nosync nounwind willreturn memory(argmem: readwrite)
declare void @llvm.lifetime.end.p0(i64 immarg, ptr captures(none)) #1

; Function Attrs: nofree nounwind uwtable
define noalias noundef ptr @vnsprintf(ptr noundef readonly captures(none) %0, ptr noundef %1) local_unnamed_addr #9 {
  %3 = alloca [1 x %struct.__va_list_tag], align 16
  call void @llvm.lifetime.start.p0(i64 24, ptr nonnull %3) #13
  %4 = load ptr, ptr @vnsprintf.dummy_file, align 8, !tbaa !8
  %.not = icmp eq ptr %4, null
  br i1 %.not, label %5, label %7

5:                                                ; preds = %2
  %6 = tail call noalias ptr @fopen(ptr noundef nonnull @.str.1, ptr noundef nonnull @.str.2)
  store ptr %6, ptr @vnsprintf.dummy_file, align 8, !tbaa !8
  br label %7

7:                                                ; preds = %5, %2
  %8 = phi ptr [ %6, %5 ], [ %4, %2 ]
  call void @llvm.va_copy.p0(ptr nonnull %3, ptr %1)
  %9 = call i32 @vfprintf(ptr noundef %8, ptr noundef %0, ptr noundef %1) #13
  %10 = add i32 %9, 1
  %11 = zext i32 %10 to i64
  %12 = call noalias ptr @malloc(i64 noundef %11) #12
  %13 = zext i32 %9 to i64
  %14 = getelementptr inbounds nuw i8, ptr %12, i64 %13
  store i8 -1, ptr %14, align 1, !tbaa !10
  %15 = call i32 @vsprintf(ptr noundef %12, ptr noundef %0, ptr noundef nonnull %3) #13
  call void @llvm.lifetime.end.p0(i64 24, ptr nonnull %3) #13
  ret ptr %12
}

; Function Attrs: nofree nounwind
declare noalias noundef ptr @fopen(ptr noundef readonly captures(none), ptr noundef readonly captures(none)) local_unnamed_addr #4

; Function Attrs: mustprogress nocallback nofree nosync nounwind willreturn
declare void @llvm.va_copy.p0(ptr, ptr) #10

; Function Attrs: nofree nounwind
declare noundef i32 @vfprintf(ptr noundef captures(none), ptr noundef readonly captures(none), ptr noundef) local_unnamed_addr #4

; Function Attrs: nofree nounwind
declare noundef i32 @vsprintf(ptr noundef captures(none), ptr noundef readonly captures(none), ptr noundef) local_unnamed_addr #4

; Function Attrs: nofree nounwind uwtable
define noalias noundef ptr @nsprintf(ptr noundef readonly captures(none) %0, ...) local_unnamed_addr #9 {
  %2 = alloca [1 x %struct.__va_list_tag], align 16
  %3 = alloca [1 x %struct.__va_list_tag], align 16
  call void @llvm.lifetime.start.p0(i64 24, ptr nonnull %3) #13
  call void @llvm.va_start.p0(ptr nonnull %3)
  call void @llvm.lifetime.start.p0(i64 24, ptr nonnull %2) #13
  %4 = load ptr, ptr @vnsprintf.dummy_file, align 8, !tbaa !8
  %.not.i = icmp eq ptr %4, null
  br i1 %.not.i, label %5, label %vnsprintf.exit

5:                                                ; preds = %1
  %6 = call noalias ptr @fopen(ptr noundef nonnull @.str.1, ptr noundef nonnull @.str.2)
  store ptr %6, ptr @vnsprintf.dummy_file, align 8, !tbaa !8
  br label %vnsprintf.exit

vnsprintf.exit:                                   ; preds = %1, %5
  %7 = phi ptr [ %6, %5 ], [ %4, %1 ]
  call void @llvm.va_copy.p0(ptr nonnull %2, ptr nonnull %3)
  %8 = call i32 @vfprintf(ptr noundef %7, ptr noundef readonly %0, ptr noundef nonnull %3) #13
  %9 = add i32 %8, 1
  %10 = zext i32 %9 to i64
  %11 = call noalias ptr @malloc(i64 noundef %10) #12
  %12 = zext i32 %8 to i64
  %13 = getelementptr inbounds nuw i8, ptr %11, i64 %12
  store i8 -1, ptr %13, align 1, !tbaa !10
  %14 = call i32 @vsprintf(ptr noundef %11, ptr noundef readonly %0, ptr noundef nonnull %2) #13
  call void @llvm.lifetime.end.p0(i64 24, ptr nonnull %2) #13
  call void @llvm.va_end.p0(ptr nonnull %3)
  call void @llvm.lifetime.end.p0(i64 24, ptr nonnull %3) #13
  ret ptr %11
}

; Function Attrs: mustprogress nocallback nofree nosync nounwind willreturn
declare void @llvm.va_start.p0(ptr) #10

; Function Attrs: mustprogress nocallback nofree nosync nounwind willreturn
declare void @llvm.va_end.p0(ptr) #10


!llvm.module.flags = !{!0, !1, !2}

!0 = !{i32 1, !"wchar_size", i32 4}
!1 = !{i32 8, !"PIC Level", i32 2}
!2 = !{i32 7, !"uwtable", i32 2}
!3 = !{!4, !4, i64 0}
!4 = !{!"p1 omnipotent char", !5, i64 0}
!5 = !{!"any pointer", !6, i64 0}
!6 = !{!"omnipotent char", !7, i64 0}
!7 = !{!"Simple C/C++ TBAA"}
!8 = !{!9, !9, i64 0}
!9 = !{!"p1 _ZTS8_IO_FILE", !5, i64 0}
!10 = !{!6, !6, i64 0}
